; Function Attrs: nounwind uwtable
define ptr @l_Lake_Toml_basicStringFn(ptr noundef %0, ptr noundef %1) #1 {
  %3 = getelementptr inbounds nuw i8, ptr %1, i64 24
  %4 = load ptr, ptr %3, align 8, !tbaa !10
  %5 = ptrtoint ptr %4 to i64
  %6 = and i64 %5, 1
  %.not = icmp eq i64 %6, 0
  br i1 %.not, label %7, label %lean_inc.exit19

7:                                                ; preds = %2
  %.val.i = load i32, ptr %4, align 4, !tbaa !4
  %8 = icmp sgt i32 %.val.i, 0
  br i1 %8, label %9, label %11, !prof !9

9:                                                ; preds = %7
  %10 = add nuw i32 %.val.i, 1
  store i32 %10, ptr %4, align 4, !tbaa !4
  br label %lean_inc.exit19

11:                                               ; preds = %7
  %.not.i22 = icmp eq i32 %.val.i, 0
  br i1 %.not.i22, label %lean_inc.exit19, label %12

12:                                               ; preds = %11
  tail call void @lean_inc_ref_cold(ptr noundef nonnull %4) #4
  br label %lean_inc.exit19

lean_inc.exit19:                                  ; preds = %12, %11, %9, %2
  %13 = load ptr, ptr @l_Lake_Toml_basicStringFn___closed__2, align 8, !tbaa !10
  %14 = tail call ptr @l_Lake_Toml_chFn(i32 noundef 34, ptr noundef %13, ptr noundef %0, ptr noundef nonnull %1) #4
  %15 = getelementptr inbounds nuw i8, ptr %14, i64 40
  %16 = load ptr, ptr %15, align 8, !tbaa !10
  %17 = ptrtoint ptr %16 to i64
  %18 = and i64 %17, 1
  %.not26 = icmp eq i64 %18, 0
  br i1 %.not26, label %19, label %lean_inc.exit

19:                                               ; preds = %lean_inc.exit19
  %.val.i23 = load i32, ptr %16, align 4, !tbaa !4
  %20 = icmp sgt i32 %.val.i23, 0
  br i1 %20, label %21, label %23, !prof !9

21:                                               ; preds = %19
  %22 = add nuw i32 %.val.i23, 1
  store i32 %22, ptr %16, align 4, !tbaa !4
  br label %lean_inc.exit

23:                                               ; preds = %19
  %.not.i24 = icmp eq i32 %.val.i23, 0
  br i1 %.not.i24, label %lean_inc.exit, label %24

24:                                               ; preds = %23
  tail call void @lean_inc_ref_cold(ptr noundef nonnull %16) #4
  br label %lean_inc.exit

lean_inc.exit:                                    ; preds = %24, %23, %21, %lean_inc.exit19
  %25 = tail call zeroext i8 @l_Option_beqOption____x40_Init_Data_Option_Basic___hyg_160____at_Lean_Parser_ParserState_hasError___spec__1(ptr noundef %16, ptr noundef nonnull inttoptr (i64 1 to ptr)) #4
  %26 = icmp eq i8 %25, 0
  br i1 %26, label %27, label %44

27:                                               ; preds = %lean_inc.exit
  br i1 %.not, label %28, label %lean_dec.exit18

28:                                               ; preds = %27
  %29 = load i32, ptr %4, align 4, !tbaa !4
  %30 = icmp sgt i32 %29, 1
  br i1 %30, label %31, label %33, !prof !9

31:                                               ; preds = %28
  %32 = add nsw i32 %29, -1
  store i32 %32, ptr %4, align 4, !tbaa !4
  br label %lean_dec.exit18

33:                                               ; preds = %28
  %.not.i = icmp eq i32 %29, 0
  br i1 %.not.i, label %lean_dec.exit18, label %34

34:                                               ; preds = %33
  tail call void @lean_dec_ref_cold(ptr noundef nonnull %4) #4
  br label %lean_dec.exit18

lean_dec.exit18:                                  ; preds = %34, %33, %31, %27
  %35 = ptrtoint ptr %0 to i64
  %36 = and i64 %35, 1
  %.not27 = icmp eq i64 %36, 0
  br i1 %.not27, label %37, label %lean_dec.exit

37:                                               ; preds = %lean_dec.exit18
  %38 = load i32, ptr %0, align 4, !tbaa !4
  %39 = icmp sgt i32 %38, 1
  br i1 %39, label %40, label %42, !prof !9

40:                                               ; preds = %37
  %41 = add nsw i32 %38, -1
  store i32 %41, ptr %0, align 4, !tbaa !4
  br label %lean_dec.exit

42:                                               ; preds = %37
  %.not.i20 = icmp eq i32 %38, 0
  br i1 %.not.i20, label %lean_dec.exit, label %43

43:                                               ; preds = %42
  tail call void @lean_dec_ref_cold(ptr noundef nonnull %0) #4
  br label %lean_dec.exit

44:                                               ; preds = %lean_inc.exit
  %45 = tail call ptr @l_Lake_Toml_basicStringAuxFn(ptr noundef %4, ptr noundef %0, ptr noundef nonnull %14)
  br label %lean_dec.exit

lean_dec.exit:                                    ; preds = %lean_dec.exit18, %40, %42, %43, %44
  %.0 = phi ptr [ %45, %44 ], [ %14, %43 ], [ %14, %42 ], [ %14, %40 ], [ %14, %lean_dec.exit18 ]
  ret ptr %.0
}